target datalayout = "e-m:e-p270:32:32-p271:32:32-p272:64:64-i64:64-i128:128-f80:128-n8:16:32:64-S128"
target triple = "x86_64-pc-linux-gnu"

%struct.jpeg_compress_struct = type { ptr, ptr, ptr, ptr, i32, i32, ptr, i32, i32, i32, i32, double, i32, i32, i32, ptr, [4 x ptr], [4 x ptr], [4 x ptr], [16 x i8], [16 x i8], [16 x i8], i32, ptr, i32, i32, i32, i32, i32, i32, i32, i32, i32, i8, i8, i8, i16, i16, i32, i32, i32, i32, i32, i32, i32, [4 x ptr], i32, i32, i32, [10 x i32], i32, i32, i32, i32, ptr, ptr, ptr, ptr, ptr, ptr, ptr, ptr, ptr, ptr, i32 }
%struct.jpeg_component_info = type { i32, i32, i32, i32, i32, i32, i32, i32, i32, i32, i32, i32, i32, i32, i32, i32, i32, i32, i32, ptr, ptr }
%struct.jpeg_comp_master = type { ptr, ptr, ptr, i32, i32, i32 }

; Function Attrs: nounwind uwtable
define internal void @expand_right_edge(ptr noundef %0, i32 noundef %1, i32 noundef %2, i32 noundef %3) #0 {
  %5 = alloca ptr, align 8
  %6 = alloca i32, align 4
  %7 = alloca i32, align 4
  %8 = alloca i32, align 4
  %9 = alloca ptr, align 8
  %10 = alloca i8, align 1
  %11 = alloca i32, align 4
  %12 = alloca i32, align 4
  %13 = alloca i32, align 4
  store ptr %0, ptr %5, align 8
  store i32 %1, ptr %6, align 4
  store i32 %2, ptr %7, align 4
  store i32 %3, ptr %8, align 4
  %14 = load i32, ptr %8, align 4
  %15 = load i32, ptr %7, align 4
  %16 = sub i32 %14, %15
  store i32 %16, ptr %13, align 4
  %17 = load i32, ptr %13, align 4
  %18 = icmp sgt i32 %17, 0
  br i1 %18, label %19, label %52

19:                                               ; preds = %4
  store i32 0, ptr %12, align 4
  br label %20

20:                                               ; preds = %48, %19
  %21 = load i32, ptr %12, align 4
  %22 = load i32, ptr %6, align 4
  %23 = icmp slt i32 %21, %22
  br i1 %23, label %24, label %51

24:                                               ; preds = %20
  %25 = load ptr, ptr %5, align 8
  %26 = load i32, ptr %12, align 4
  %27 = sext i32 %26 to i64
  %28 = getelementptr inbounds ptr, ptr %25, i64 %27
  %29 = load ptr, ptr %28, align 8
  %30 = load i32, ptr %7, align 4
  %31 = zext i32 %30 to i64
  %32 = getelementptr inbounds i8, ptr %29, i64 %31
  store ptr %32, ptr %9, align 8
  %33 = load ptr, ptr %9, align 8
  %34 = getelementptr inbounds i8, ptr %33, i64 -1
  %35 = load i8, ptr %34, align 1
  store i8 %35, ptr %10, align 1
  %36 = load i32, ptr %13, align 4
  store i32 %36, ptr %11, align 4
  br label %37

37:                                               ; preds = %44, %24
  %38 = load i32, ptr %11, align 4
  %39 = icmp sgt i32 %38, 0
  br i1 %39, label %40, label %47

40:                                               ; preds = %37
  %41 = load i8, ptr %10, align 1
  %42 = load ptr, ptr %9, align 8
  %43 = getelementptr inbounds i8, ptr %42, i32 1
  store ptr %43, ptr %9, align 8
  store i8 %41, ptr %42, align 1
  br label %44

44:                                               ; preds = %40
  %45 = load i32, ptr %11, align 4
  %46 = add nsw i32 %45, -1
  store i32 %46, ptr %11, align 4
  br label %37, !llvm.loop !19

47:                                               ; preds = %37
  br label %48

48:                                               ; preds = %47
  %49 = load i32, ptr %12, align 4
  %50 = add nsw i32 %49, 1
  store i32 %50, ptr %12, align 4
  br label %20, !llvm.loop !20

51:                                               ; preds = %20
  br label %52

52:                                               ; preds = %51, %4
  ret void
}

; Function Attrs: nounwind uwtable
define internal void @fullsize_smooth_downsample(ptr noundef %0, ptr noundef %1, ptr noundef %2, ptr noundef %3) #0 {
  %5 = alloca ptr, align 8
  %6 = alloca ptr, align 8
  %7 = alloca ptr, align 8
  %8 = alloca ptr, align 8
  %9 = alloca i32, align 4
  %10 = alloca i32, align 4
  %11 = alloca i32, align 4
  %12 = alloca i32, align 4
  %13 = alloca ptr, align 8
  %14 = alloca ptr, align 8
  %15 = alloca ptr, align 8
  %16 = alloca ptr, align 8
  %17 = alloca i64, align 8
  %18 = alloca i64, align 8
  %19 = alloca i64, align 8
  %20 = alloca i64, align 8
  %21 = alloca i32, align 4
  %22 = alloca i32, align 4
  %23 = alloca i32, align 4
  store ptr %0, ptr %5, align 8
  store ptr %1, ptr %6, align 8
  store ptr %2, ptr %7, align 8
  store ptr %3, ptr %8, align 8
  %24 = load ptr, ptr %5, align 8
  %25 = getelementptr inbounds %struct.jpeg_compress_struct, ptr %24, i32 0, i32 54
  %26 = load ptr, ptr %25, align 8
  %27 = getelementptr inbounds %struct.jpeg_comp_master, ptr %26, i32 0, i32 5
  %28 = load i32, ptr %27, align 8
  %29 = icmp ne i32 %28, 0
  %30 = select i1 %29, i32 1, i32 8
  store i32 %30, ptr %11, align 4
  %31 = load ptr, ptr %6, align 8
  %32 = getelementptr inbounds %struct.jpeg_component_info, ptr %31, i32 0, i32 7
  %33 = load i32, ptr %32, align 4
  %34 = load i32, ptr %11, align 4
  %35 = mul i32 %33, %34
  store i32 %35, ptr %12, align 4
  %36 = load ptr, ptr %7, align 8
  %37 = getelementptr inbounds ptr, ptr %36, i64 -1
  %38 = load ptr, ptr %5, align 8
  %39 = getelementptr inbounds %struct.jpeg_compress_struct, ptr %38, i32 0, i32 42
  %40 = load i32, ptr %39, align 4
  %41 = add nsw i32 %40, 2
  %42 = load ptr, ptr %5, align 8
  %43 = getelementptr inbounds %struct.jpeg_compress_struct, ptr %42, i32 0, i32 7
  %44 = load i32, ptr %43, align 8
  %45 = load i32, ptr %12, align 4
  call void @expand_right_edge(ptr noundef %37, i32 noundef %41, i32 noundef %44, i32 noundef %45)
  %46 = load ptr, ptr %5, align 8
  %47 = getelementptr inbounds %struct.jpeg_compress_struct, ptr %46, i32 0, i32 28
  %48 = load i32, ptr %47, align 8
  %49 = sext i32 %48 to i64
  %50 = mul nsw i64 %49, 512
  %51 = sub nsw i64 65536, %50
  store i64 %51, ptr %19, align 8
  %52 = load ptr, ptr %5, align 8
  %53 = getelementptr inbounds %struct.jpeg_compress_struct, ptr %52, i32 0, i32 28
  %54 = load i32, ptr %53, align 8
  %55 = mul nsw i32 %54, 64
  %56 = sext i32 %55 to i64
  store i64 %56, ptr %20, align 8
  store i32 0, ptr %9, align 4
  br label %57

57:                                               ; preds = %225, %4
  %58 = load i32, ptr %9, align 4
  %59 = load ptr, ptr %6, align 8
  %60 = getelementptr inbounds %struct.jpeg_component_info, ptr %59, i32 0, i32 3
  %61 = load i32, ptr %60, align 4
  %62 = icmp slt i32 %58, %61
  br i1 %62, label %63, label %228

63:                                               ; preds = %57
  %64 = load ptr, ptr %8, align 8
  %65 = load i32, ptr %9, align 4
  %66 = sext i32 %65 to i64
  %67 = getelementptr inbounds ptr, ptr %64, i64 %66
  %68 = load ptr, ptr %67, align 8
  store ptr %68, ptr %16, align 8
  %69 = load ptr, ptr %7, align 8
  %70 = load i32, ptr %9, align 4
  %71 = sext i32 %70 to i64
  %72 = getelementptr inbounds ptr, ptr %69, i64 %71
  %73 = load ptr, ptr %72, align 8
  store ptr %73, ptr %13, align 8
  %74 = load ptr, ptr %7, align 8
  %75 = load i32, ptr %9, align 4
  %76 = sub nsw i32 %75, 1
  %77 = sext i32 %76 to i64
  %78 = getelementptr inbounds ptr, ptr %74, i64 %77
  %79 = load ptr, ptr %78, align 8
  store ptr %79, ptr %14, align 8
  %80 = load ptr, ptr %7, align 8
  %81 = load i32, ptr %9, align 4
  %82 = add nsw i32 %81, 1
  %83 = sext i32 %82 to i64
  %84 = getelementptr inbounds ptr, ptr %80, i64 %83
  %85 = load ptr, ptr %84, align 8
  store ptr %85, ptr %15, align 8
  %86 = load ptr, ptr %14, align 8
  %87 = getelementptr inbounds i8, ptr %86, i32 1
  store ptr %87, ptr %14, align 8
  %88 = load i8, ptr %86, align 1
  %89 = zext i8 %88 to i32
  %90 = load ptr, ptr %15, align 8
  %91 = getelementptr inbounds i8, ptr %90, i32 1
  store ptr %91, ptr %15, align 8
  %92 = load i8, ptr %90, align 1
  %93 = zext i8 %92 to i32
  %94 = add nsw i32 %89, %93
  %95 = load ptr, ptr %13, align 8
  %96 = getelementptr inbounds i8, ptr %95, i64 0
  %97 = load i8, ptr %96, align 1
  %98 = zext i8 %97 to i32
  %99 = add nsw i32 %94, %98
  store i32 %99, ptr %21, align 4
  %100 = load ptr, ptr %13, align 8
  %101 = getelementptr inbounds i8, ptr %100, i32 1
  store ptr %101, ptr %13, align 8
  %102 = load i8, ptr %100, align 1
  %103 = zext i8 %102 to i64
  store i64 %103, ptr %17, align 8
  %104 = load ptr, ptr %14, align 8
  %105 = getelementptr inbounds i8, ptr %104, i64 0
  %106 = load i8, ptr %105, align 1
  %107 = zext i8 %106 to i32
  %108 = load ptr, ptr %15, align 8
  %109 = getelementptr inbounds i8, ptr %108, i64 0
  %110 = load i8, ptr %109, align 1
  %111 = zext i8 %110 to i32
  %112 = add nsw i32 %107, %111
  %113 = load ptr, ptr %13, align 8
  %114 = getelementptr inbounds i8, ptr %113, i64 0
  %115 = load i8, ptr %114, align 1
  %116 = zext i8 %115 to i32
  %117 = add nsw i32 %112, %116
  store i32 %117, ptr %23, align 4
  %118 = load i32, ptr %21, align 4
  %119 = sext i32 %118 to i64
  %120 = load i32, ptr %21, align 4
  %121 = sext i32 %120 to i64
  %122 = load i64, ptr %17, align 8
  %123 = sub nsw i64 %121, %122
  %124 = add nsw i64 %119, %123
  %125 = load i32, ptr %23, align 4
  %126 = sext i32 %125 to i64
  %127 = add nsw i64 %124, %126
  store i64 %127, ptr %18, align 8
  %128 = load i64, ptr %17, align 8
  %129 = load i64, ptr %19, align 8
  %130 = mul nsw i64 %128, %129
  %131 = load i64, ptr %18, align 8
  %132 = load i64, ptr %20, align 8
  %133 = mul nsw i64 %131, %132
  %134 = add nsw i64 %130, %133
  store i64 %134, ptr %17, align 8
  %135 = load i64, ptr %17, align 8
  %136 = add nsw i64 %135, 32768
  %137 = ashr i64 %136, 16
  %138 = trunc i64 %137 to i8
  %139 = load ptr, ptr %16, align 8
  %140 = getelementptr inbounds i8, ptr %139, i32 1
  store ptr %140, ptr %16, align 8
  store i8 %138, ptr %139, align 1
  %141 = load i32, ptr %21, align 4
  store i32 %141, ptr %22, align 4
  %142 = load i32, ptr %23, align 4
  store i32 %142, ptr %21, align 4
  %143 = load i32, ptr %12, align 4
  %144 = sub i32 %143, 2
  store i32 %144, ptr %10, align 4
  br label %145

145:                                              ; preds = %196, %63
  %146 = load i32, ptr %10, align 4
  %147 = icmp ugt i32 %146, 0
  br i1 %147, label %148, label %199

148:                                              ; preds = %145
  %149 = load ptr, ptr %13, align 8
  %150 = getelementptr inbounds i8, ptr %149, i32 1
  store ptr %150, ptr %13, align 8
  %151 = load i8, ptr %149, align 1
  %152 = zext i8 %151 to i64
  store i64 %152, ptr %17, align 8
  %153 = load ptr, ptr %14, align 8
  %154 = getelementptr inbounds i8, ptr %153, i32 1
  store ptr %154, ptr %14, align 8
  %155 = load ptr, ptr %15, align 8
  %156 = getelementptr inbounds i8, ptr %155, i32 1
  store ptr %156, ptr %15, align 8
  %157 = load ptr, ptr %14, align 8
  %158 = getelementptr inbounds i8, ptr %157, i64 0
  %159 = load i8, ptr %158, align 1
  %160 = zext i8 %159 to i32
  %161 = load ptr, ptr %15, align 8
  %162 = getelementptr inbounds i8, ptr %161, i64 0
  %163 = load i8, ptr %162, align 1
  %164 = zext i8 %163 to i32
  %165 = add nsw i32 %160, %164
  %166 = load ptr, ptr %13, align 8
  %167 = getelementptr inbounds i8, ptr %166, i64 0
  %168 = load i8, ptr %167, align 1
  %169 = zext i8 %168 to i32
  %170 = add nsw i32 %165, %169
  store i32 %170, ptr %23, align 4
  %171 = load i32, ptr %22, align 4
  %172 = sext i32 %171 to i64
  %173 = load i32, ptr %21, align 4
  %174 = sext i32 %173 to i64
  %175 = load i64, ptr %17, align 8
  %176 = sub nsw i64 %174, %175
  %177 = add nsw i64 %172, %176
  %178 = load i32, ptr %23, align 4
  %179 = sext i32 %178 to i64
  %180 = add nsw i64 %177, %179
  store i64 %180, ptr %18, align 8
  %181 = load i64, ptr %17, align 8
  %182 = load i64, ptr %19, align 8
  %183 = mul nsw i64 %181, %182
  %184 = load i64, ptr %18, align 8
  %185 = load i64, ptr %20, align 8
  %186 = mul nsw i64 %184, %185
  %187 = add nsw i64 %183, %186
  store i64 %187, ptr %17, align 8
  %188 = load i64, ptr %17, align 8
  %189 = add nsw i64 %188, 32768
  %190 = ashr i64 %189, 16
  %191 = trunc i64 %190 to i8
  %192 = load ptr, ptr %16, align 8
  %193 = getelementptr inbounds i8, ptr %192, i32 1
  store ptr %193, ptr %16, align 8
  store i8 %191, ptr %192, align 1
  %194 = load i32, ptr %21, align 4
  store i32 %194, ptr %22, align 4
  %195 = load i32, ptr %23, align 4
  store i32 %195, ptr %21, align 4
  br label %196

196:                                              ; preds = %148
  %197 = load i32, ptr %10, align 4
  %198 = add i32 %197, -1
  store i32 %198, ptr %10, align 4
  br label %145, !llvm.loop !7

199:                                              ; preds = %145
  %200 = load ptr, ptr %13, align 8
  %201 = load i8, ptr %200, align 1
  %202 = zext i8 %201 to i64
  store i64 %202, ptr %17, align 8
  %203 = load i32, ptr %22, align 4
  %204 = sext i32 %203 to i64
  %205 = load i32, ptr %21, align 4
  %206 = sext i32 %205 to i64
  %207 = load i64, ptr %17, align 8
  %208 = sub nsw i64 %206, %207
  %209 = add nsw i64 %204, %208
  %210 = load i32, ptr %21, align 4
  %211 = sext i32 %210 to i64
  %212 = add nsw i64 %209, %211
  store i64 %212, ptr %18, align 8
  %213 = load i64, ptr %17, align 8
  %214 = load i64, ptr %19, align 8
  %215 = mul nsw i64 %213, %214
  %216 = load i64, ptr %18, align 8
  %217 = load i64, ptr %20, align 8
  %218 = mul nsw i64 %216, %217
  %219 = add nsw i64 %215, %218
  store i64 %219, ptr %17, align 8
  %220 = load i64, ptr %17, align 8
  %221 = add nsw i64 %220, 32768
  %222 = ashr i64 %221, 16
  %223 = trunc i64 %222 to i8
  %224 = load ptr, ptr %16, align 8
  store i8 %223, ptr %224, align 1
  br label %225

225:                                              ; preds = %199
  %226 = load i32, ptr %9, align 4
  %227 = add nsw i32 %226, 1
  store i32 %227, ptr %9, align 4
  br label %57, !llvm.loop !8

228:                                              ; preds = %57
  ret void
}