; Function Attrs: nofree norecurse nosync nounwind memory(readwrite, inaccessiblemem: none) uwtable
define internal void @fullsize_smooth_downsample(ptr nocapture noundef readonly %0, ptr nocapture noundef readonly %1, ptr nocapture noundef readonly %2, ptr nocapture noundef readonly %3) #2 {
  %5 = getelementptr inbounds i8, ptr %0, i64 432
  %6 = load ptr, ptr %5, align 8
  %7 = getelementptr inbounds i8, ptr %6, i64 32
  %8 = load i32, ptr %7, align 8
  %.not = icmp eq i32 %8, 0
  %9 = getelementptr inbounds i8, ptr %1, i64 28
  %10 = load i32, ptr %9, align 4
  %11 = select i1 %.not, i32 3, i32 0
  %12 = shl i32 %10, %11
  %13 = getelementptr inbounds i8, ptr %2, i64 -8
  %14 = getelementptr inbounds i8, ptr %0, i64 316
  %15 = load i32, ptr %14, align 4
  %16 = getelementptr inbounds i8, ptr %0, i64 48
  %17 = load i32, ptr %16, align 8
  %18 = sub i32 %12, %17
  %19 = icmp sgt i32 %18, 0
  %20 = icmp sgt i32 %15, -2
  %or.cond.i = and i1 %20, %19
  br i1 %or.cond.i, label %.lr.ph20.i, label %expand_right_edge.exit

.lr.ph20.i:                                       ; preds = %4
  %21 = add nsw i32 %15, 2
  %22 = zext i32 %17 to i64
  %23 = xor i32 %17, -1
  %24 = add i32 %12, %23
  %25 = zext i32 %24 to i64
  %26 = add nuw nsw i64 %25, 1
  %wide.trip.count.i = zext nneg i32 %21 to i64
  br label %.lr.ph.us.i

.lr.ph.us.i:                                      ; preds = %.lr.ph.us.i, %.lr.ph20.i
  %indvars.iv.i = phi i64 [ 0, %.lr.ph20.i ], [ %indvars.iv.next.i, %.lr.ph.us.i ]
  %27 = getelementptr inbounds ptr, ptr %13, i64 %indvars.iv.i
  %28 = load ptr, ptr %27, align 8
  %29 = getelementptr inbounds i8, ptr %28, i64 %22
  %30 = getelementptr inbounds i8, ptr %29, i64 -1
  %31 = load i8, ptr %30, align 1
  tail call void @llvm.memset.p0.i64(ptr noundef nonnull align 1 dereferenceable(1) %29, i8 %31, i64 %26, i1 false)
  %indvars.iv.next.i = add nuw nsw i64 %indvars.iv.i, 1
  %exitcond.not.i = icmp eq i64 %indvars.iv.next.i, %wide.trip.count.i
  br i1 %exitcond.not.i, label %expand_right_edge.exit, label %.lr.ph.us.i, !llvm.loop !7

expand_right_edge.exit:                           ; preds = %.lr.ph.us.i, %4
  %32 = getelementptr inbounds i8, ptr %0, i64 272
  %33 = load i32, ptr %32, align 8
  %34 = sext i32 %33 to i64
  %35 = shl nsw i64 %34, 9
  %36 = sub nsw i64 65536, %35
  %37 = shl nsw i32 %33, 6
  %38 = zext i32 %37 to i64
  %39 = getelementptr inbounds i8, ptr %1, i64 12
  %40 = load i32, ptr %39, align 4
  %41 = icmp sgt i32 %40, 0
  br i1 %41, label %.lr.ph94, label %._crit_edge95

.lr.ph94:                                         ; preds = %expand_right_edge.exit
  %42 = add i32 %12, -2
  %.not7782 = icmp eq i32 %42, 0
  br i1 %.not7782, label %.lr.ph94.split.us, label %.lr.ph

.lr.ph94.split.us:                                ; preds = %.lr.ph94, %.lr.ph94.split.us
  %indvars.iv99 = phi i64 [ %indvars.iv.next100, %.lr.ph94.split.us ], [ 0, %.lr.ph94 ]
  %43 = getelementptr inbounds ptr, ptr %3, i64 %indvars.iv99
  %44 = load ptr, ptr %43, align 8
  %45 = getelementptr inbounds ptr, ptr %2, i64 %indvars.iv99
  %46 = load ptr, ptr %45, align 8
  %47 = getelementptr i8, ptr %45, i64 -8
  %48 = load ptr, ptr %47, align 8
  %indvars.iv.next100 = add nuw nsw i64 %indvars.iv99, 1
  %49 = getelementptr inbounds ptr, ptr %2, i64 %indvars.iv.next100
  %50 = load ptr, ptr %49, align 8
  %51 = getelementptr inbounds i8, ptr %48, i64 1
  %52 = load i8, ptr %48, align 1
  %53 = zext i8 %52 to i32
  %54 = getelementptr inbounds i8, ptr %50, i64 1
  %55 = load i8, ptr %50, align 1
  %56 = zext i8 %55 to i32
  %57 = add nuw nsw i32 %56, %53
  %58 = load i8, ptr %46, align 1
  %59 = zext i8 %58 to i32
  %60 = add nuw nsw i32 %57, %59
  %61 = getelementptr inbounds i8, ptr %46, i64 1
  %62 = zext i8 %58 to i64
  %63 = load i8, ptr %51, align 1
  %64 = zext i8 %63 to i32
  %65 = load i8, ptr %54, align 1
  %66 = zext i8 %65 to i32
  %67 = add nuw nsw i32 %66, %64
  %68 = load i8, ptr %61, align 1
  %69 = zext i8 %68 to i32
  %70 = add nuw nsw i32 %67, %69
  %71 = zext nneg i32 %70 to i64
  %72 = shl nuw nsw i32 %60, 1
  %factor.us = zext nneg i32 %72 to i64
  %73 = sub nsw i64 %factor.us, %62
  %74 = add nsw i64 %73, %71
  %75 = mul nsw i64 %36, %62
  %76 = mul i64 %74, %38
  %77 = add nsw i64 %75, 32768
  %78 = add i64 %77, %76
  %79 = lshr i64 %78, 16
  %80 = trunc i64 %79 to i8
  store i8 %80, ptr %44, align 1
  %.07381.us = getelementptr inbounds i8, ptr %44, i64 1
  %81 = load i8, ptr %61, align 1
  %82 = zext i8 %81 to i64
  %83 = shl nuw nsw i32 %70, 1
  %narrow = add nuw nsw i32 %83, %60
  %84 = zext nneg i32 %narrow to i64
  %85 = sub nsw i64 %84, %82
  %86 = mul nsw i64 %36, %82
  %87 = mul i64 %85, %38
  %88 = add nsw i64 %86, 32768
  %89 = add i64 %88, %87
  %90 = lshr i64 %89, 16
  %91 = trunc i64 %90 to i8
  store i8 %91, ptr %.07381.us, align 1
  %92 = load i32, ptr %39, align 4
  %93 = sext i32 %92 to i64
  %94 = icmp slt i64 %indvars.iv.next100, %93
  br i1 %94, label %.lr.ph94.split.us, label %._crit_edge95, !llvm.loop !8

.lr.ph:                                           ; preds = %.lr.ph94, %._crit_edge
  %indvars.iv = phi i64 [ %indvars.iv.next, %._crit_edge ], [ 0, %.lr.ph94 ]
  %95 = getelementptr inbounds ptr, ptr %3, i64 %indvars.iv
  %96 = load ptr, ptr %95, align 8
  %97 = getelementptr inbounds ptr, ptr %2, i64 %indvars.iv
  %98 = load ptr, ptr %97, align 8
  %99 = getelementptr i8, ptr %97, i64 -8
  %100 = load ptr, ptr %99, align 8
  %indvars.iv.next = add nuw nsw i64 %indvars.iv, 1
  %101 = getelementptr inbounds ptr, ptr %2, i64 %indvars.iv.next
  %102 = load ptr, ptr %101, align 8
  %103 = getelementptr inbounds i8, ptr %100, i64 1
  %104 = load i8, ptr %100, align 1
  %105 = zext i8 %104 to i32
  %106 = getelementptr inbounds i8, ptr %102, i64 1
  %107 = load i8, ptr %102, align 1
  %108 = zext i8 %107 to i32
  %109 = add nuw nsw i32 %108, %105
  %110 = load i8, ptr %98, align 1
  %111 = zext i8 %110 to i32
  %112 = add nuw nsw i32 %109, %111
  %113 = getelementptr inbounds i8, ptr %98, i64 1
  %114 = zext i8 %110 to i64
  %115 = load i8, ptr %103, align 1
  %116 = zext i8 %115 to i32
  %117 = load i8, ptr %106, align 1
  %118 = zext i8 %117 to i32
  %119 = add nuw nsw i32 %118, %116
  %120 = load i8, ptr %113, align 1
  %121 = zext i8 %120 to i32
  %122 = add nuw nsw i32 %119, %121
  %123 = zext nneg i32 %122 to i64
  %124 = shl nuw nsw i32 %112, 1
  %factor = zext nneg i32 %124 to i64
  %125 = sub nsw i64 %factor, %114
  %126 = add nsw i64 %125, %123
  %127 = mul nsw i64 %36, %114
  %128 = mul i64 %126, %38
  %129 = add nsw i64 %127, 32768
  %130 = add i64 %129, %128
  %131 = lshr i64 %130, 16
  %132 = trunc i64 %131 to i8
  store i8 %132, ptr %96, align 1
  %.07381 = getelementptr inbounds i8, ptr %96, i64 1
  br label %133

133:                                              ; preds = %.lr.ph, %133
  %.07389 = phi ptr [ %.07381, %.lr.ph ], [ %.073, %133 ]
  %.088 = phi i32 [ %112, %.lr.ph ], [ %.07087, %133 ]
  %.07087 = phi i32 [ %122, %.lr.ph ], [ %146, %133 ]
  %.07286 = phi i32 [ %42, %.lr.ph ], [ %159, %133 ]
  %.07485 = phi ptr [ %106, %.lr.ph ], [ %138, %133 ]
  %.07584 = phi ptr [ %103, %.lr.ph ], [ %137, %133 ]
  %.07683 = phi ptr [ %113, %.lr.ph ], [ %134, %133 ]
  %134 = getelementptr inbounds i8, ptr %.07683, i64 1
  %135 = load i8, ptr %.07683, align 1
  %136 = zext i8 %135 to i64
  %137 = getelementptr inbounds i8, ptr %.07584, i64 1
  %138 = getelementptr inbounds i8, ptr %.07485, i64 1
  %139 = load i8, ptr %137, align 1
  %140 = zext i8 %139 to i32
  %141 = load i8, ptr %138, align 1
  %142 = zext i8 %141 to i32
  %143 = add nuw nsw i32 %142, %140
  %144 = load i8, ptr %134, align 1
  %145 = zext i8 %144 to i32
  %146 = add nuw nsw i32 %143, %145
  %147 = zext nneg i32 %.088 to i64
  %148 = zext nneg i32 %.07087 to i64
  %149 = zext nneg i32 %146 to i64
  %150 = add nuw nsw i64 %147, %148
  %151 = sub nsw i64 %150, %136
  %152 = add nsw i64 %151, %149
  %153 = mul nsw i64 %36, %136
  %154 = mul i64 %152, %38
  %155 = add nsw i64 %153, 32768
  %156 = add i64 %155, %154
  %157 = lshr i64 %156, 16
  %158 = trunc i64 %157 to i8
  store i8 %158, ptr %.07389, align 1
  %159 = add i32 %.07286, -1
  %.073 = getelementptr inbounds i8, ptr %.07389, i64 1
  %.not77 = icmp eq i32 %159, 0
  br i1 %.not77, label %._crit_edge, label %133, !llvm.loop !9

._crit_edge:                                      ; preds = %133
  %160 = load i8, ptr %134, align 1
  %161 = zext i8 %160 to i64
  %162 = shl nuw nsw i32 %146, 1
  %factor80 = zext nneg i32 %162 to i64
  %163 = add nuw nsw i64 %factor80, %148
  %164 = sub nsw i64 %163, %161
  %165 = mul nsw i64 %36, %161
  %166 = mul i64 %164, %38
  %167 = add nsw i64 %165, 32768
  %168 = add i64 %167, %166
  %169 = lshr i64 %168, 16
  %170 = trunc i64 %169 to i8
  store i8 %170, ptr %.073, align 1
  %171 = load i32, ptr %39, align 4
  %172 = sext i32 %171 to i64
  %173 = icmp slt i64 %indvars.iv.next, %172
  br i1 %173, label %.lr.ph, label %._crit_edge95, !llvm.loop !8

._crit_edge95:                                    ; preds = %._crit_edge, %.lr.ph94.split.us, %expand_right_edge.exit
  ret void
}